; Function Attrs: nounwind uwtable
define internal ptr @sys_profile_return(ptr noundef readonly captures(none) %0, ptr noundef readonly captures(none) %1, i64 %2, ptr readnone captures(none) %3) #0 {
  %5 = getelementptr i8, ptr %1, i64 16
  %6 = load ptr, ptr %5, align 8, !tbaa !111
  %7 = tail call align 8 ptr @llvm.threadlocal.address.p0(ptr align 8 @_Py_tss_tstate)
  %8 = load ptr, ptr %7, align 8, !tbaa !17
  %9 = getelementptr inbounds nuw i8, ptr %8, i64 80
  %10 = load ptr, ptr %9, align 8, !tbaa !103
  %11 = icmp eq ptr %10, null
  br i1 %11, label %call_profile_func.exit, label %12

12:                                               ; preds = %4
  %13 = tail call ptr @PyEval_GetFrame() #4
  %14 = icmp eq ptr %13, null
  br i1 %14, label %15, label %17

15:                                               ; preds = %12
  %16 = load ptr, ptr @PyExc_SystemError, align 8, !tbaa !111
  tail call void @PyErr_SetString(ptr noundef %16, ptr noundef nonnull @.str.3) #4
  br label %call_profile_func.exit

17:                                               ; preds = %12
  %18 = load i32, ptr %13, align 8, !tbaa !15
  %19 = icmp slt i32 %18, 0
  br i1 %19, label %Py_INCREF.exit.i, label %20

20:                                               ; preds = %17
  %21 = add nuw i32 %18, 1
  store i32 %21, ptr %13, align 8, !tbaa !15
  br label %Py_INCREF.exit.i

Py_INCREF.exit.i:                                 ; preds = %20, %17
  %22 = load ptr, ptr %9, align 8, !tbaa !103
  %23 = getelementptr inbounds nuw i8, ptr %8, i64 96
  %24 = load ptr, ptr %23, align 8, !tbaa !104
  %25 = getelementptr inbounds nuw i8, ptr %0, i64 24
  %26 = load i32, ptr %25, align 8, !tbaa !102
  %27 = tail call i32 %22(ptr noundef %24, ptr noundef nonnull %13, i32 noundef %26, ptr noundef %6) #4
  %28 = load i32, ptr %13, align 8, !tbaa !15
  %.not.i.i = icmp sgt i32 %28, -1
  br i1 %.not.i.i, label %29, label %Py_DECREF.exit.i

29:                                               ; preds = %Py_INCREF.exit.i
  %30 = add nsw i32 %28, -1
  store i32 %30, ptr %13, align 8, !tbaa !15
  %31 = icmp eq i32 %30, 0
  br i1 %31, label %32, label %Py_DECREF.exit.i

32:                                               ; preds = %29
  tail call void @_Py_Dealloc(ptr noundef nonnull %13) #4
  br label %Py_DECREF.exit.i

Py_DECREF.exit.i:                                 ; preds = %32, %29, %Py_INCREF.exit.i
  %.not.i = icmp eq i32 %27, 0
  %_Py_NoneStruct..i = select i1 %.not.i, ptr @_Py_NoneStruct, ptr null
  br label %call_profile_func.exit

call_profile_func.exit:                           ; preds = %4, %15, %Py_DECREF.exit.i
  %.0.i = phi ptr [ @_Py_NoneStruct, %4 ], [ null, %15 ], [ %_Py_NoneStruct..i, %Py_DECREF.exit.i ]
  ret ptr %.0.i
}